; Function Attrs: mustprogress nounwind uwtable
define void @_ZN7rocksdb13BlobLogWriterD2Ev(ptr noundef nonnull align 8 captures(none) dereferenceable(48) %0) unnamed_addr #1 align 2 personality ptr @__gxx_personality_v0 {
  %2 = load ptr, ptr %0, align 8, !tbaa !18
  %.not.i = icmp eq ptr %2, null
  br i1 %.not.i, label %_ZNSt10unique_ptrIN7rocksdb18WritableFileWriterESt14default_deleteIS1_EED2Ev.exit, label %_ZNKSt14default_deleteIN7rocksdb18WritableFileWriterEEclEPS1_.exit.i

_ZNKSt14default_deleteIN7rocksdb18WritableFileWriterEEclEPS1_.exit.i: ; preds = %1
  tail call void @_ZN7rocksdb18WritableFileWriterD2Ev(ptr noundef nonnull align 8 dereferenceable(258) %2) #20
  tail call void @_ZdlPvm(ptr noundef nonnull %2, i64 noundef 264) #19
  br label %_ZNSt10unique_ptrIN7rocksdb18WritableFileWriterESt14default_deleteIS1_EED2Ev.exit

_ZNSt10unique_ptrIN7rocksdb18WritableFileWriterESt14default_deleteIS1_EED2Ev.exit: ; preds = %1, %_ZNKSt14default_deleteIN7rocksdb18WritableFileWriterEEclEPS1_.exit.i
  store ptr null, ptr %0, align 8, !tbaa !18
  ret void
}